target datalayout = "e-m:e-p270:32:32-p271:32:32-p272:64:64-i64:64-i128:128-f80:128-n8:16:32:64-S128"
target triple = "x86_64-pc-linux-gnu"

; Function Attrs: nounwind uwtable
define i32 @stbtt_CompareUTF8toUTF16_bigendian_internal(ptr noundef %0, i32 noundef %1, ptr noundef %2, i32 noundef %3) #0 {
  %5 = alloca ptr, align 8
  %6 = alloca i32, align 4
  %7 = alloca ptr, align 8
  %8 = alloca i32, align 4
  store ptr %0, ptr %5, align 8, !tbaa !25
  store i32 %1, ptr %6, align 4, !tbaa !14
  store ptr %2, ptr %7, align 8, !tbaa !25
  store i32 %3, ptr %8, align 4, !tbaa !14
  %9 = load i32, ptr %6, align 4, !tbaa !14
  %10 = load ptr, ptr %5, align 8, !tbaa !25
  %11 = load i32, ptr %6, align 4, !tbaa !14
  %12 = load ptr, ptr %7, align 8, !tbaa !25
  %13 = load i32, ptr %8, align 4, !tbaa !14
  %14 = call i32 @stbtt__CompareUTF8toUTF16_bigendian_prefix(ptr noundef %10, i32 noundef %11, ptr noundef %12, i32 noundef %13)
  %15 = icmp eq i32 %9, %14
  %16 = zext i1 %15 to i32
  ret i32 %16
}

; Function Attrs: nounwind uwtable
define zeroext i16 @ttUSHORT(ptr noundef %0) #0 {
  %2 = alloca ptr, align 8
  store ptr %0, ptr %2, align 8, !tbaa !25
  %3 = load ptr, ptr %2, align 8, !tbaa !25
  %4 = getelementptr inbounds i8, ptr %3, i64 0
  %5 = load i8, ptr %4, align 1, !tbaa !13
  %6 = zext i8 %5 to i32
  %7 = mul nsw i32 %6, 256
  %8 = load ptr, ptr %2, align 8, !tbaa !25
  %9 = getelementptr inbounds i8, ptr %8, i64 1
  %10 = load i8, ptr %9, align 1, !tbaa !13
  %11 = zext i8 %10 to i32
  %12 = add nsw i32 %7, %11
  %13 = trunc i32 %12 to i16
  ret i16 %13
}

; Function Attrs: nounwind uwtable
define i32 @stbtt__matchpair(ptr noundef %0, i32 noundef %1, ptr noundef %2, i32 noundef %3, i32 noundef %4, i32 noundef %5) #0 {
  %7 = alloca i32, align 4
  %8 = alloca ptr, align 8
  %9 = alloca i32, align 4
  %10 = alloca ptr, align 8
  %11 = alloca i32, align 4
  %12 = alloca i32, align 4
  %13 = alloca i32, align 4
  %14 = alloca i32, align 4
  %15 = alloca i32, align 4
  %16 = alloca i32, align 4
  %17 = alloca i32, align 4
  %18 = alloca i32, align 4
  %19 = alloca i32, align 4
  %20 = alloca i32, align 4
  %21 = alloca i32, align 4
  %22 = alloca i32, align 4
  %23 = alloca i32, align 4
  %24 = alloca i32, align 4
  %25 = alloca i32, align 4
  store ptr %0, ptr %8, align 8, !tbaa !25
  store i32 %1, ptr %9, align 4, !tbaa !14
  store ptr %2, ptr %10, align 8, !tbaa !25
  store i32 %3, ptr %11, align 4, !tbaa !14
  store i32 %4, ptr %12, align 4, !tbaa !14
  store i32 %5, ptr %13, align 4, !tbaa !14
  call void @llvm.lifetime.start.p0(i64 4, ptr %14) #8
  call void @llvm.lifetime.start.p0(i64 4, ptr %15) #8
  %26 = load ptr, ptr %8, align 8, !tbaa !25
  %27 = load i32, ptr %9, align 4, !tbaa !14
  %28 = zext i32 %27 to i64
  %29 = getelementptr inbounds nuw i8, ptr %26, i64 %28
  %30 = getelementptr inbounds i8, ptr %29, i64 2
  %31 = call zeroext i16 @ttUSHORT(ptr noundef %30)
  %32 = zext i16 %31 to i32
  store i32 %32, ptr %15, align 4, !tbaa !14
  call void @llvm.lifetime.start.p0(i64 4, ptr %16) #8
  %33 = load i32, ptr %9, align 4, !tbaa !14
  %34 = load ptr, ptr %8, align 8, !tbaa !25
  %35 = load i32, ptr %9, align 4, !tbaa !14
  %36 = zext i32 %35 to i64
  %37 = getelementptr inbounds nuw i8, ptr %34, i64 %36
  %38 = getelementptr inbounds i8, ptr %37, i64 4
  %39 = call zeroext i16 @ttUSHORT(ptr noundef %38)
  %40 = zext i16 %39 to i32
  %41 = add i32 %33, %40
  store i32 %41, ptr %16, align 4, !tbaa !14
  store i32 0, ptr %14, align 4, !tbaa !14
  br label %42

42:                                               ; preds = %254, %6
  %43 = load i32, ptr %14, align 4, !tbaa !14
  %44 = load i32, ptr %15, align 4, !tbaa !14
  %45 = icmp slt i32 %43, %44
  br i1 %45, label %46, label %257

46:                                               ; preds = %42
  call void @llvm.lifetime.start.p0(i64 4, ptr %17) #8
  %47 = load i32, ptr %9, align 4, !tbaa !14
  %48 = add i32 %47, 6
  %49 = load i32, ptr %14, align 4, !tbaa !14
  %50 = mul nsw i32 12, %49
  %51 = add i32 %48, %50
  store i32 %51, ptr %17, align 4, !tbaa !14
  call void @llvm.lifetime.start.p0(i64 4, ptr %18) #8
  %52 = load ptr, ptr %8, align 8, !tbaa !25
  %53 = load i32, ptr %17, align 4, !tbaa !14
  %54 = zext i32 %53 to i64
  %55 = getelementptr inbounds nuw i8, ptr %52, i64 %54
  %56 = getelementptr inbounds i8, ptr %55, i64 6
  %57 = call zeroext i16 @ttUSHORT(ptr noundef %56)
  %58 = zext i16 %57 to i32
  store i32 %58, ptr %18, align 4, !tbaa !14
  %59 = load i32, ptr %18, align 4, !tbaa !14
  %60 = load i32, ptr %12, align 4, !tbaa !14
  %61 = icmp eq i32 %59, %60
  br i1 %61, label %62, label %250

62:                                               ; preds = %46
  call void @llvm.lifetime.start.p0(i64 4, ptr %19) #8
  %63 = load ptr, ptr %8, align 8, !tbaa !25
  %64 = load i32, ptr %17, align 4, !tbaa !14
  %65 = zext i32 %64 to i64
  %66 = getelementptr inbounds nuw i8, ptr %63, i64 %65
  %67 = getelementptr inbounds i8, ptr %66, i64 0
  %68 = call zeroext i16 @ttUSHORT(ptr noundef %67)
  %69 = zext i16 %68 to i32
  store i32 %69, ptr %19, align 4, !tbaa !14
  call void @llvm.lifetime.start.p0(i64 4, ptr %20) #8
  %70 = load ptr, ptr %8, align 8, !tbaa !25
  %71 = load i32, ptr %17, align 4, !tbaa !14
  %72 = zext i32 %71 to i64
  %73 = getelementptr inbounds nuw i8, ptr %70, i64 %72
  %74 = getelementptr inbounds i8, ptr %73, i64 2
  %75 = call zeroext i16 @ttUSHORT(ptr noundef %74)
  %76 = zext i16 %75 to i32
  store i32 %76, ptr %20, align 4, !tbaa !14
  call void @llvm.lifetime.start.p0(i64 4, ptr %21) #8
  %77 = load ptr, ptr %8, align 8, !tbaa !25
  %78 = load i32, ptr %17, align 4, !tbaa !14
  %79 = zext i32 %78 to i64
  %80 = getelementptr inbounds nuw i8, ptr %77, i64 %79
  %81 = getelementptr inbounds i8, ptr %80, i64 4
  %82 = call zeroext i16 @ttUSHORT(ptr noundef %81)
  %83 = zext i16 %82 to i32
  store i32 %83, ptr %21, align 4, !tbaa !14
  %84 = load i32, ptr %19, align 4, !tbaa !14
  %85 = icmp eq i32 %84, 0
  br i1 %85, label %98, label %86

86:                                               ; preds = %62
  %87 = load i32, ptr %19, align 4, !tbaa !14
  %88 = icmp eq i32 %87, 3
  br i1 %88, label %89, label %92

89:                                               ; preds = %86
  %90 = load i32, ptr %20, align 4, !tbaa !14
  %91 = icmp eq i32 %90, 1
  br i1 %91, label %98, label %92

92:                                               ; preds = %89, %86
  %93 = load i32, ptr %19, align 4, !tbaa !14
  %94 = icmp eq i32 %93, 3
  br i1 %94, label %95, label %246

95:                                               ; preds = %92
  %96 = load i32, ptr %20, align 4, !tbaa !14
  %97 = icmp eq i32 %96, 10
  br i1 %97, label %98, label %246

98:                                               ; preds = %95, %89, %62
  call void @llvm.lifetime.start.p0(i64 4, ptr %22) #8
  %99 = load ptr, ptr %8, align 8, !tbaa !25
  %100 = load i32, ptr %17, align 4, !tbaa !14
  %101 = zext i32 %100 to i64
  %102 = getelementptr inbounds nuw i8, ptr %99, i64 %101
  %103 = getelementptr inbounds i8, ptr %102, i64 8
  %104 = call zeroext i16 @ttUSHORT(ptr noundef %103)
  %105 = zext i16 %104 to i32
  store i32 %105, ptr %22, align 4, !tbaa !14
  call void @llvm.lifetime.start.p0(i64 4, ptr %23) #8
  %106 = load ptr, ptr %8, align 8, !tbaa !25
  %107 = load i32, ptr %17, align 4, !tbaa !14
  %108 = zext i32 %107 to i64
  %109 = getelementptr inbounds nuw i8, ptr %106, i64 %108
  %110 = getelementptr inbounds i8, ptr %109, i64 10
  %111 = call zeroext i16 @ttUSHORT(ptr noundef %110)
  %112 = zext i16 %111 to i32
  store i32 %112, ptr %23, align 4, !tbaa !14
  call void @llvm.lifetime.start.p0(i64 4, ptr %24) #8
  %113 = load ptr, ptr %10, align 8, !tbaa !25
  %114 = load i32, ptr %11, align 4, !tbaa !14
  %115 = load ptr, ptr %8, align 8, !tbaa !25
  %116 = load i32, ptr %16, align 4, !tbaa !14
  %117 = sext i32 %116 to i64
  %118 = getelementptr inbounds i8, ptr %115, i64 %117
  %119 = load i32, ptr %23, align 4, !tbaa !14
  %120 = sext i32 %119 to i64
  %121 = getelementptr inbounds i8, ptr %118, i64 %120
  %122 = load i32, ptr %22, align 4, !tbaa !14
  %123 = call i32 @stbtt__CompareUTF8toUTF16_bigendian_prefix(ptr noundef %113, i32 noundef %114, ptr noundef %121, i32 noundef %122)
  store i32 %123, ptr %24, align 4, !tbaa !14
  %124 = load i32, ptr %24, align 4, !tbaa !14
  %125 = icmp sge i32 %124, 0
  br i1 %125, label %126, label %242

126:                                              ; preds = %98
  %127 = load i32, ptr %14, align 4, !tbaa !14
  %128 = add nsw i32 %127, 1
  %129 = load i32, ptr %15, align 4, !tbaa !14
  %130 = icmp slt i32 %128, %129
  br i1 %130, label %131, label %235

131:                                              ; preds = %126
  %132 = load ptr, ptr %8, align 8, !tbaa !25
  %133 = load i32, ptr %17, align 4, !tbaa !14
  %134 = zext i32 %133 to i64
  %135 = getelementptr inbounds nuw i8, ptr %132, i64 %134
  %136 = getelementptr inbounds i8, ptr %135, i64 12
  %137 = getelementptr inbounds i8, ptr %136, i64 6
  %138 = call zeroext i16 @ttUSHORT(ptr noundef %137)
  %139 = zext i16 %138 to i32
  %140 = load i32, ptr %13, align 4, !tbaa !14
  %141 = icmp eq i32 %139, %140
  br i1 %141, label %142, label %235

142:                                              ; preds = %131
  %143 = load ptr, ptr %8, align 8, !tbaa !25
  %144 = load i32, ptr %17, align 4, !tbaa !14
  %145 = zext i32 %144 to i64
  %146 = getelementptr inbounds nuw i8, ptr %143, i64 %145
  %147 = getelementptr inbounds i8, ptr %146, i64 12
  %148 = call zeroext i16 @ttUSHORT(ptr noundef %147)
  %149 = zext i16 %148 to i32
  %150 = load i32, ptr %19, align 4, !tbaa !14
  %151 = icmp eq i32 %149, %150
  br i1 %151, label %152, label %235

152:                                              ; preds = %142
  %153 = load ptr, ptr %8, align 8, !tbaa !25
  %154 = load i32, ptr %17, align 4, !tbaa !14
  %155 = zext i32 %154 to i64
  %156 = getelementptr inbounds nuw i8, ptr %153, i64 %155
  %157 = getelementptr inbounds i8, ptr %156, i64 12
  %158 = getelementptr inbounds i8, ptr %157, i64 2
  %159 = call zeroext i16 @ttUSHORT(ptr noundef %158)
  %160 = zext i16 %159 to i32
  %161 = load i32, ptr %20, align 4, !tbaa !14
  %162 = icmp eq i32 %160, %161
  br i1 %162, label %163, label %235

163:                                              ; preds = %152
  %164 = load ptr, ptr %8, align 8, !tbaa !25
  %165 = load i32, ptr %17, align 4, !tbaa !14
  %166 = zext i32 %165 to i64
  %167 = getelementptr inbounds nuw i8, ptr %164, i64 %166
  %168 = getelementptr inbounds i8, ptr %167, i64 12
  %169 = getelementptr inbounds i8, ptr %168, i64 4
  %170 = call zeroext i16 @ttUSHORT(ptr noundef %169)
  %171 = zext i16 %170 to i32
  %172 = load i32, ptr %21, align 4, !tbaa !14
  %173 = icmp eq i32 %171, %172
  br i1 %173, label %174, label %235

174:                                              ; preds = %163
  %175 = load ptr, ptr %8, align 8, !tbaa !25
  %176 = load i32, ptr %17, align 4, !tbaa !14
  %177 = zext i32 %176 to i64
  %178 = getelementptr inbounds nuw i8, ptr %175, i64 %177
  %179 = getelementptr inbounds i8, ptr %178, i64 12
  %180 = getelementptr inbounds i8, ptr %179, i64 8
  %181 = call zeroext i16 @ttUSHORT(ptr noundef %180)
  %182 = zext i16 %181 to i32
  store i32 %182, ptr %22, align 4, !tbaa !14
  %183 = load ptr, ptr %8, align 8, !tbaa !25
  %184 = load i32, ptr %17, align 4, !tbaa !14
  %185 = zext i32 %184 to i64
  %186 = getelementptr inbounds nuw i8, ptr %183, i64 %185
  %187 = getelementptr inbounds i8, ptr %186, i64 12
  %188 = getelementptr inbounds i8, ptr %187, i64 10
  %189 = call zeroext i16 @ttUSHORT(ptr noundef %188)
  %190 = zext i16 %189 to i32
  store i32 %190, ptr %23, align 4, !tbaa !14
  %191 = load i32, ptr %22, align 4, !tbaa !14
  %192 = icmp eq i32 %191, 0
  br i1 %192, label %193, label %199

193:                                              ; preds = %174
  %194 = load i32, ptr %24, align 4, !tbaa !14
  %195 = load i32, ptr %11, align 4, !tbaa !14
  %196 = icmp eq i32 %194, %195
  br i1 %196, label %197, label %198

197:                                              ; preds = %193
  store i32 1, ptr %7, align 4
  store i32 1, ptr %25, align 4
  br label %243

198:                                              ; preds = %193
  br label %234

199:                                              ; preds = %174
  %200 = load i32, ptr %24, align 4, !tbaa !14
  %201 = load i32, ptr %11, align 4, !tbaa !14
  %202 = icmp slt i32 %200, %201
  br i1 %202, label %203, label %233

203:                                              ; preds = %199
  %204 = load ptr, ptr %10, align 8, !tbaa !25
  %205 = load i32, ptr %24, align 4, !tbaa !14
  %206 = sext i32 %205 to i64
  %207 = getelementptr inbounds i8, ptr %204, i64 %206
  %208 = load i8, ptr %207, align 1, !tbaa !13
  %209 = zext i8 %208 to i32
  %210 = icmp eq i32 %209, 32
  br i1 %210, label %211, label %233

211:                                              ; preds = %203
  %212 = load i32, ptr %24, align 4, !tbaa !14
  %213 = add nsw i32 %212, 1
  store i32 %213, ptr %24, align 4, !tbaa !14
  %214 = load ptr, ptr %10, align 8, !tbaa !25
  %215 = load i32, ptr %24, align 4, !tbaa !14
  %216 = sext i32 %215 to i64
  %217 = getelementptr inbounds i8, ptr %214, i64 %216
  %218 = load i32, ptr %11, align 4, !tbaa !14
  %219 = load i32, ptr %24, align 4, !tbaa !14
  %220 = sub nsw i32 %218, %219
  %221 = load ptr, ptr %8, align 8, !tbaa !25
  %222 = load i32, ptr %16, align 4, !tbaa !14
  %223 = sext i32 %222 to i64
  %224 = getelementptr inbounds i8, ptr %221, i64 %223
  %225 = load i32, ptr %23, align 4, !tbaa !14
  %226 = sext i32 %225 to i64
  %227 = getelementptr inbounds i8, ptr %224, i64 %226
  %228 = load i32, ptr %22, align 4, !tbaa !14
  %229 = call i32 @stbtt_CompareUTF8toUTF16_bigendian_internal(ptr noundef %217, i32 noundef %220, ptr noundef %227, i32 noundef %228)
  %230 = icmp ne i32 %229, 0
  br i1 %230, label %231, label %232

231:                                              ; preds = %211
  store i32 1, ptr %7, align 4
  store i32 1, ptr %25, align 4
  br label %243

232:                                              ; preds = %211
  br label %233

233:                                              ; preds = %232, %203, %199
  br label %234

234:                                              ; preds = %233, %198
  br label %241

235:                                              ; preds = %163, %152, %142, %131, %126
  %236 = load i32, ptr %24, align 4, !tbaa !14
  %237 = load i32, ptr %11, align 4, !tbaa !14
  %238 = icmp eq i32 %236, %237
  br i1 %238, label %239, label %240

239:                                              ; preds = %235
  store i32 1, ptr %7, align 4
  store i32 1, ptr %25, align 4
  br label %243

240:                                              ; preds = %235
  br label %241

241:                                              ; preds = %240, %234
  br label %242

242:                                              ; preds = %241, %98
  store i32 0, ptr %25, align 4
  br label %243

243:                                              ; preds = %242, %239, %231, %197
  call void @llvm.lifetime.end.p0(i64 4, ptr %24) #8
  call void @llvm.lifetime.end.p0(i64 4, ptr %23) #8
  call void @llvm.lifetime.end.p0(i64 4, ptr %22) #8
  %244 = load i32, ptr %25, align 4
  switch i32 %244, label %247 [
    i32 0, label %245
  ]

245:                                              ; preds = %243
  br label %246

246:                                              ; preds = %245, %95, %92
  store i32 0, ptr %25, align 4
  br label %247

247:                                              ; preds = %246, %243
  call void @llvm.lifetime.end.p0(i64 4, ptr %21) #8
  call void @llvm.lifetime.end.p0(i64 4, ptr %20) #8
  call void @llvm.lifetime.end.p0(i64 4, ptr %19) #8
  %248 = load i32, ptr %25, align 4
  switch i32 %248, label %251 [
    i32 0, label %249
  ]

249:                                              ; preds = %247
  br label %250

250:                                              ; preds = %249, %46
  store i32 0, ptr %25, align 4
  br label %251

251:                                              ; preds = %250, %247
  call void @llvm.lifetime.end.p0(i64 4, ptr %18) #8
  call void @llvm.lifetime.end.p0(i64 4, ptr %17) #8
  %252 = load i32, ptr %25, align 4
  switch i32 %252, label %258 [
    i32 0, label %253
  ]

253:                                              ; preds = %251
  br label %254

254:                                              ; preds = %253
  %255 = load i32, ptr %14, align 4, !tbaa !14
  %256 = add nsw i32 %255, 1
  store i32 %256, ptr %14, align 4, !tbaa !14
  br label %42, !llvm.loop !261

257:                                              ; preds = %42
  store i32 0, ptr %7, align 4
  store i32 1, ptr %25, align 4
  br label %258

258:                                              ; preds = %257, %251
  call void @llvm.lifetime.end.p0(i64 4, ptr %16) #8
  call void @llvm.lifetime.end.p0(i64 4, ptr %15) #8
  call void @llvm.lifetime.end.p0(i64 4, ptr %14) #8
  %259 = load i32, ptr %7, align 4
  ret i32 %259
}