; Function Attrs: nofree norecurse nosync nounwind memory(argmem: read) uwtable
define range(i32 0, 2) i32 @stbtt__matchpair(ptr noundef readonly captures(none) %0, i32 noundef %1, ptr noundef readonly captures(none) %2, i32 noundef %3, i32 noundef %4, i32 noundef %5) local_unnamed_addr #7 {
  %7 = zext i32 %1 to i64
  %8 = getelementptr inbounds nuw i8, ptr %0, i64 %7
  %9 = getelementptr inbounds nuw i8, ptr %8, i64 2
  %10 = load i8, ptr %9, align 1, !tbaa !12
  %11 = zext i8 %10 to i32
  %12 = shl nuw nsw i32 %11, 8
  %13 = getelementptr inbounds nuw i8, ptr %8, i64 3
  %14 = load i8, ptr %13, align 1, !tbaa !12
  %15 = zext i8 %14 to i32
  %16 = or disjoint i32 %12, %15
  %.not100 = icmp eq i32 %16, 0
  br i1 %.not100, label %.critedge91, label %.lr.ph

.lr.ph:                                           ; preds = %6
  %17 = getelementptr inbounds nuw i8, ptr %8, i64 4
  %18 = load i8, ptr %17, align 1, !tbaa !12
  %19 = zext i8 %18 to i32
  %20 = shl nuw nsw i32 %19, 8
  %21 = getelementptr inbounds nuw i8, ptr %8, i64 5
  %22 = load i8, ptr %21, align 1, !tbaa !12
  %23 = zext i8 %22 to i32
  %24 = or disjoint i32 %20, %23
  %25 = add i32 %24, %1
  %26 = add i32 %1, 6
  %27 = sext i32 %25 to i64
  %28 = getelementptr inbounds i8, ptr %0, i64 %27
  %29 = zext nneg i32 %16 to i64
  br label %30

30:                                               ; preds = %.lr.ph, %.critedge92
  %indvars.iv = phi i64 [ 0, %.lr.ph ], [ %indvars.iv.next, %.critedge92 ]
  %31 = trunc i64 %indvars.iv to i32
  %32 = mul i32 %31, 12
  %33 = add i32 %26, %32
  %34 = zext i32 %33 to i64
  %35 = getelementptr inbounds nuw i8, ptr %0, i64 %34
  %36 = getelementptr inbounds nuw i8, ptr %35, i64 6
  %37 = load i8, ptr %36, align 1, !tbaa !12
  %38 = zext i8 %37 to i32
  %39 = shl nuw nsw i32 %38, 8
  %40 = getelementptr inbounds nuw i8, ptr %35, i64 7
  %41 = load i8, ptr %40, align 1, !tbaa !12
  %42 = zext i8 %41 to i32
  %43 = or disjoint i32 %39, %42
  %44 = icmp eq i32 %4, %43
  br i1 %44, label %45, label %.critedge92

45:                                               ; preds = %30
  %46 = load i8, ptr %35, align 1, !tbaa !12
  %47 = zext i8 %46 to i16
  %48 = shl nuw i16 %47, 8
  %49 = getelementptr inbounds nuw i8, ptr %35, i64 1
  %50 = load i8, ptr %49, align 1, !tbaa !12
  %51 = zext i8 %50 to i16
  %52 = or disjoint i16 %48, %51
  %53 = getelementptr inbounds nuw i8, ptr %35, i64 2
  %54 = load i8, ptr %53, align 1, !tbaa !12
  %55 = zext i8 %54 to i16
  %56 = shl nuw i16 %55, 8
  %57 = getelementptr inbounds nuw i8, ptr %35, i64 3
  %58 = load i8, ptr %57, align 1, !tbaa !12
  %59 = zext i8 %58 to i16
  %60 = or disjoint i16 %56, %59
  %61 = getelementptr inbounds nuw i8, ptr %35, i64 4
  %62 = load i8, ptr %61, align 1, !tbaa !12
  %63 = zext i8 %62 to i16
  %64 = shl nuw i16 %63, 8
  %65 = getelementptr inbounds nuw i8, ptr %35, i64 5
  %66 = load i8, ptr %65, align 1, !tbaa !12
  %67 = zext i8 %66 to i16
  %68 = or disjoint i16 %64, %67
  %69 = icmp eq i16 %52, 0
  br i1 %69, label %75, label %70

70:                                               ; preds = %45
  %71 = icmp eq i16 %52, 3
  %72 = icmp eq i16 %60, 1
  %73 = icmp eq i16 %60, 10
  %74 = or i1 %72, %73
  %or.cond89 = select i1 %71, i1 %74, i1 false
  br i1 %or.cond89, label %75, label %.critedge92

75:                                               ; preds = %70, %45
  %76 = getelementptr inbounds nuw i8, ptr %35, i64 8
  %77 = load i8, ptr %76, align 1, !tbaa !12
  %78 = zext i8 %77 to i32
  %79 = shl nuw nsw i32 %78, 8
  %80 = getelementptr inbounds nuw i8, ptr %35, i64 9
  %81 = load i8, ptr %80, align 1, !tbaa !12
  %82 = zext i8 %81 to i32
  %83 = or disjoint i32 %79, %82
  %84 = getelementptr inbounds nuw i8, ptr %35, i64 10
  %85 = load i8, ptr %84, align 1, !tbaa !12
  %86 = zext i8 %85 to i64
  %87 = shl nuw nsw i64 %86, 8
  %88 = getelementptr inbounds nuw i8, ptr %35, i64 11
  %89 = load i8, ptr %88, align 1, !tbaa !12
  %90 = zext i8 %89 to i64
  %91 = or disjoint i64 %87, %90
  %92 = getelementptr inbounds nuw i8, ptr %28, i64 %91
  %93 = tail call i32 @stbtt__CompareUTF8toUTF16_bigendian_prefix(ptr noundef %2, i32 noundef %3, ptr noundef %92, i32 noundef %83)
  %94 = icmp sgt i32 %93, -1
  br i1 %94, label %95, label %.critedge92

95:                                               ; preds = %75
  %96 = add nuw nsw i64 %indvars.iv, 1
  %97 = icmp samesign ult i64 %96, %29
  br i1 %97, label %98, label %173

98:                                               ; preds = %95
  %99 = getelementptr inbounds nuw i8, ptr %35, i64 18
  %100 = load i8, ptr %99, align 1, !tbaa !12
  %101 = zext i8 %100 to i32
  %102 = shl nuw nsw i32 %101, 8
  %103 = getelementptr inbounds nuw i8, ptr %35, i64 19
  %104 = load i8, ptr %103, align 1, !tbaa !12
  %105 = zext i8 %104 to i32
  %106 = or disjoint i32 %102, %105
  %107 = icmp eq i32 %5, %106
  br i1 %107, label %108, label %173

108:                                              ; preds = %98
  %109 = getelementptr inbounds nuw i8, ptr %35, i64 12
  %110 = load i8, ptr %109, align 1, !tbaa !12
  %111 = zext i8 %110 to i16
  %112 = shl nuw i16 %111, 8
  %113 = getelementptr inbounds nuw i8, ptr %35, i64 13
  %114 = load i8, ptr %113, align 1, !tbaa !12
  %115 = zext i8 %114 to i16
  %116 = or disjoint i16 %112, %115
  %117 = icmp eq i16 %116, %52
  br i1 %117, label %118, label %173

118:                                              ; preds = %108
  %119 = getelementptr inbounds nuw i8, ptr %35, i64 14
  %120 = load i8, ptr %119, align 1, !tbaa !12
  %121 = zext i8 %120 to i16
  %122 = shl nuw i16 %121, 8
  %123 = getelementptr inbounds nuw i8, ptr %35, i64 15
  %124 = load i8, ptr %123, align 1, !tbaa !12
  %125 = zext i8 %124 to i16
  %126 = or disjoint i16 %122, %125
  %127 = icmp eq i16 %126, %60
  br i1 %127, label %128, label %173

128:                                              ; preds = %118
  %129 = getelementptr inbounds nuw i8, ptr %35, i64 16
  %130 = load i8, ptr %129, align 1, !tbaa !12
  %131 = zext i8 %130 to i16
  %132 = shl nuw i16 %131, 8
  %133 = getelementptr inbounds nuw i8, ptr %35, i64 17
  %134 = load i8, ptr %133, align 1, !tbaa !12
  %135 = zext i8 %134 to i16
  %136 = or disjoint i16 %132, %135
  %137 = icmp eq i16 %136, %68
  br i1 %137, label %138, label %173

138:                                              ; preds = %128
  %139 = getelementptr inbounds nuw i8, ptr %35, i64 20
  %140 = load i8, ptr %139, align 1, !tbaa !12
  %141 = zext i8 %140 to i16
  %142 = shl nuw i16 %141, 8
  %143 = getelementptr inbounds nuw i8, ptr %35, i64 21
  %144 = load i8, ptr %143, align 1, !tbaa !12
  %145 = zext i8 %144 to i16
  %146 = or disjoint i16 %142, %145
  %147 = zext i16 %146 to i32
  %148 = getelementptr inbounds nuw i8, ptr %35, i64 22
  %149 = load i8, ptr %148, align 1, !tbaa !12
  %150 = zext i8 %149 to i64
  %151 = shl nuw nsw i64 %150, 8
  %152 = getelementptr inbounds nuw i8, ptr %35, i64 23
  %153 = load i8, ptr %152, align 1, !tbaa !12
  %154 = zext i8 %153 to i64
  %155 = or disjoint i64 %151, %154
  %156 = icmp eq i16 %146, 0
  br i1 %156, label %157, label %159

157:                                              ; preds = %138
  %158 = icmp eq i32 %93, %3
  br i1 %158, label %.critedge91, label %.critedge92

159:                                              ; preds = %138
  %160 = icmp slt i32 %93, %3
  br i1 %160, label %161, label %.critedge92

161:                                              ; preds = %159
  %162 = zext nneg i32 %93 to i64
  %163 = getelementptr inbounds nuw i8, ptr %2, i64 %162
  %164 = load i8, ptr %163, align 1, !tbaa !12
  %165 = icmp eq i8 %164, 32
  br i1 %165, label %166, label %.critedge92

166:                                              ; preds = %161
  %167 = add nuw nsw i32 %93, 1
  %168 = zext nneg i32 %167 to i64
  %169 = getelementptr inbounds nuw i8, ptr %2, i64 %168
  %170 = sub nsw i32 %3, %167
  %171 = getelementptr inbounds nuw i8, ptr %28, i64 %155
  %172 = tail call i32 @stbtt__CompareUTF8toUTF16_bigendian_prefix(ptr noundef nonnull readonly %169, i32 noundef %170, ptr noundef readonly %171, i32 noundef %147)
  %.not = icmp eq i32 %170, %172
  br i1 %.not, label %.critedge91, label %.critedge92

173:                                              ; preds = %128, %118, %108, %98, %95
  %174 = icmp eq i32 %93, %3
  br i1 %174, label %.critedge91, label %.critedge92

.critedge92:                                      ; preds = %75, %173, %157, %166, %161, %159, %30, %70
  %indvars.iv.next = add nuw nsw i64 %indvars.iv, 1
  %exitcond.not = icmp eq i64 %indvars.iv.next, %29
  br i1 %exitcond.not, label %.critedge91, label %30, !llvm.loop !237

.critedge91:                                      ; preds = %173, %166, %157, %.critedge92, %6
  %.6 = phi i32 [ 0, %6 ], [ 0, %.critedge92 ], [ 1, %157 ], [ 1, %166 ], [ 1, %173 ]
  ret i32 %.6
}